; ModuleID = '58/218.c'
source_filename = "58/218.c"
target datalayout = "e-m:e-p270:32:32-p271:32:32-p272:64:64-i64:64-f80:128-n8:16:32:64-S128"
target triple = "x86_64-pc-linux-gnu"

@.str = private unnamed_addr constant [3 x i8] c"0\0A\00", align 1
@.str.1 = private unnamed_addr constant [3 x i8] c"1\0A\00", align 1

; Function Attrs: noinline nounwind uwtable
define dso_local i32 @main() #0 {
  %1 = alloca i32, align 4
  %2 = alloca [100 x i8], align 16
  %3 = alloca [10 x i8], align 1
  %4 = alloca i32, align 4
  %5 = alloca i32, align 4
  %6 = alloca i32, align 4
  %7 = alloca i32, align 4
  %8 = alloca i32, align 4
  store i32 0, i32* %1, align 4
  %9 = getelementptr inbounds [10 x i8], [10 x i8]* %3, i64 0, i64 0
  %10 = call i32 (i8*, ...) bitcast (i32 (...)* @gets to i32 (i8*, ...)*)(i8* %9)
  %11 = getelementptr inbounds [10 x i8], [10 x i8]* %3, i64 0, i64 0
  %12 = call i32 @atoi(i8* %11) #3
  store i32 %12, i32* %4, align 4
  store i32 0, i32* %6, align 4
  br label %13

13:                                               ; preds = %130, %0
  %14 = load i32, i32* %6, align 4
  %15 = load i32, i32* %4, align 4
  %16 = icmp slt i32 %14, %15
  br i1 %16, label %17, label %133

17:                                               ; preds = %13
  %18 = getelementptr inbounds [100 x i8], [100 x i8]* %2, i64 0, i64 0
  %19 = call i32 (i8*, ...) bitcast (i32 (...)* @gets to i32 (i8*, ...)*)(i8* %18)
  %20 = getelementptr inbounds [100 x i8], [100 x i8]* %2, i64 0, i64 0
  %21 = load i8, i8* %20, align 16
  %22 = sext i8 %21 to i32
  %23 = icmp eq i32 %22, 95
  br i1 %23, label %44, label %24

24:                                               ; preds = %17
  %25 = getelementptr inbounds [100 x i8], [100 x i8]* %2, i64 0, i64 0
  %26 = load i8, i8* %25, align 16
  %27 = sext i8 %26 to i32
  %28 = icmp sge i32 %27, 65
  br i1 %28, label %29, label %34

29:                                               ; preds = %24
  %30 = getelementptr inbounds [100 x i8], [100 x i8]* %2, i64 0, i64 0
  %31 = load i8, i8* %30, align 16
  %32 = sext i8 %31 to i32
  %33 = icmp sle i32 %32, 90
  br i1 %33, label %44, label %34

34:                                               ; preds = %29, %24
  %35 = getelementptr inbounds [100 x i8], [100 x i8]* %2, i64 0, i64 0
  %36 = load i8, i8* %35, align 16
  %37 = sext i8 %36 to i32
  %38 = icmp sge i32 %37, 97
  br i1 %38, label %39, label %108

39:                                               ; preds = %34
  %40 = getelementptr inbounds [100 x i8], [100 x i8]* %2, i64 0, i64 0
  %41 = load i8, i8* %40, align 16
  %42 = sext i8 %41 to i32
  %43 = icmp sle i32 %42, 122
  br i1 %43, label %44, label %108

44:                                               ; preds = %39, %29, %17
  store i32 1, i32* %8, align 4
  store i32 1, i32* %5, align 4
  store i32 1, i32* %7, align 4
  br label %45

45:                                               ; preds = %104, %44
  %46 = load i32, i32* %7, align 4
  %47 = sext i32 %46 to i64
  %48 = getelementptr inbounds [100 x i8], [100 x i8]* %2, i64 0, i64 %47
  %49 = load i8, i8* %48, align 1
  %50 = sext i8 %49 to i32
  %51 = icmp ne i32 %50, 0
  br i1 %51, label %52, label %107

52:                                               ; preds = %45
  %53 = load i32, i32* %7, align 4
  %54 = sext i32 %53 to i64
  %55 = getelementptr inbounds [100 x i8], [100 x i8]* %2, i64 0, i64 %54
  %56 = load i8, i8* %55, align 1
  %57 = sext i8 %56 to i32
  %58 = icmp sge i32 %57, 65
  br i1 %58, label %59, label %66

59:                                               ; preds = %52
  %60 = load i32, i32* %7, align 4
  %61 = sext i32 %60 to i64
  %62 = getelementptr inbounds [100 x i8], [100 x i8]* %2, i64 0, i64 %61
  %63 = load i8, i8* %62, align 1
  %64 = sext i8 %63 to i32
  %65 = icmp sle i32 %64, 90
  br i1 %65, label %101, label %66

66:                                               ; preds = %59, %52
  %67 = load i32, i32* %7, align 4
  %68 = sext i32 %67 to i64
  %69 = getelementptr inbounds [100 x i8], [100 x i8]* %2, i64 0, i64 %68
  %70 = load i8, i8* %69, align 1
  %71 = sext i8 %70 to i32
  %72 = icmp sge i32 %71, 97
  br i1 %72, label %73, label %80

73:                                               ; preds = %66
  %74 = load i32, i32* %7, align 4
  %75 = sext i32 %74 to i64
  %76 = getelementptr inbounds [100 x i8], [100 x i8]* %2, i64 0, i64 %75
  %77 = load i8, i8* %76, align 1
  %78 = sext i8 %77 to i32
  %79 = icmp sle i32 %78, 122
  br i1 %79, label %101, label %80

80:                                               ; preds = %73, %66
  %81 = load i32, i32* %7, align 4
  %82 = sext i32 %81 to i64
  %83 = getelementptr inbounds [100 x i8], [100 x i8]* %2, i64 0, i64 %82
  %84 = load i8, i8* %83, align 1
  %85 = sext i8 %84 to i32
  %86 = icmp sge i32 %85, 48
  br i1 %86, label %87, label %94

87:                                               ; preds = %80
  %88 = load i32, i32* %7, align 4
  %89 = sext i32 %88 to i64
  %90 = getelementptr inbounds [100 x i8], [100 x i8]* %2, i64 0, i64 %89
  %91 = load i8, i8* %90, align 1
  %92 = sext i8 %91 to i32
  %93 = icmp sle i32 %92, 57
  br i1 %93, label %101, label %94

94:                                               ; preds = %87, %80
  %95 = load i32, i32* %7, align 4
  %96 = sext i32 %95 to i64
  %97 = getelementptr inbounds [100 x i8], [100 x i8]* %2, i64 0, i64 %96
  %98 = load i8, i8* %97, align 1
  %99 = sext i8 %98 to i32
  %100 = icmp eq i32 %99, 95
  br i1 %100, label %101, label %102

101:                                              ; preds = %94, %87, %73, %59
  store i32 1, i32* %5, align 4
  br label %103

102:                                              ; preds = %94
  store i32 0, i32* %5, align 4
  br label %107

103:                                              ; preds = %101
  br label %104

104:                                              ; preds = %103
  %105 = load i32, i32* %7, align 4
  %106 = add nsw i32 %105, 1
  store i32 %106, i32* %7, align 4
  br label %45

107:                                              ; preds = %102, %45
  br label %109

108:                                              ; preds = %39, %34
  store i32 0, i32* %8, align 4
  br label %109

109:                                              ; preds = %108, %107
  %110 = load i32, i32* %8, align 4
  %111 = icmp eq i32 %110, 0
  br i1 %111, label %112, label %114

112:                                              ; preds = %109
  %113 = call i32 (i8*, ...) @printf(i8* getelementptr inbounds ([3 x i8], [3 x i8]* @.str, i64 0, i64 0))
  br label %129

114:                                              ; preds = %109
  %115 = load i32, i32* %5, align 4
  %116 = icmp eq i32 %115, 1
  br i1 %116, label %117, label %122

117:                                              ; preds = %114
  %118 = load i32, i32* %8, align 4
  %119 = icmp eq i32 %118, 1
  br i1 %119, label %120, label %122

120:                                              ; preds = %117
  %121 = call i32 (i8*, ...) @printf(i8* getelementptr inbounds ([3 x i8], [3 x i8]* @.str.1, i64 0, i64 0))
  br label %128

122:                                              ; preds = %117, %114
  %123 = load i32, i32* %5, align 4
  %124 = icmp eq i32 %123, 0
  br i1 %124, label %125, label %127

125:                                              ; preds = %122
  %126 = call i32 (i8*, ...) @printf(i8* getelementptr inbounds ([3 x i8], [3 x i8]* @.str, i64 0, i64 0))
  br label %127

127:                                              ; preds = %125, %122
  br label %128

128:                                              ; preds = %127, %120
  br label %129

129:                                              ; preds = %128, %112
  br label %130

130:                                              ; preds = %129
  %131 = load i32, i32* %6, align 4
  %132 = add nsw i32 %131, 1
  store i32 %132, i32* %6, align 4
  br label %13

133:                                              ; preds = %13
  ret i32 0
}

declare dso_local i32 @gets(...) #1

; Function Attrs: nounwind readonly
declare dso_local i32 @atoi(i8*) #2

declare dso_local i32 @printf(i8*, ...) #1


!llvm.module.flags = !{!0}
!llvm.ident = !{!1}

!0 = !{i32 1, !"wchar_size", i32 4}
!1 = !{!"clang version 10.0.0-4ubuntu1 "}
