; ModuleID = 'source-C-CXX/57/218.c'
source_filename = "source-C-CXX/57/218.c"
target datalayout = "e-m:e-p270:32:32-p271:32:32-p272:64:64-i64:64-f80:128-n8:16:32:64-S128"
target triple = "x86_64-pc-linux-gnu"

@str.2 = private unnamed_addr constant [2 x i8] c"1\00", align 1
@str.3 = private unnamed_addr constant [2 x i8] c"0\00", align 1

; Function Attrs: nounwind sspstrong uwtable
define dso_local i32 @main() local_unnamed_addr #0 {
  %1 = alloca [100 x i8], align 16
  %2 = alloca [10 x i8], align 1
  %3 = getelementptr inbounds [100 x i8], [100 x i8]* %1, i64 0, i64 0
  call void @llvm.lifetime.start.p0i8(i64 100, i8* nonnull %3) #5
  %4 = getelementptr inbounds [10 x i8], [10 x i8]* %2, i64 0, i64 0
  call void @llvm.lifetime.start.p0i8(i64 10, i8* nonnull %4) #5
  %5 = call i32 (i8*, ...) bitcast (i32 (...)* @gets to i32 (i8*, ...)*)(i8* nonnull %4) #5
  %6 = call i64 @strtol(i8* nocapture nonnull %4, i8** null, i32 10) #5
  %7 = trunc i64 %6 to i32
  %8 = getelementptr inbounds [100 x i8], [100 x i8]* %1, i64 0, i64 1
  %9 = icmp sgt i32 %7, 0
  br i1 %9, label %10, label %43

10:                                               ; preds = %0, %38
  %11 = phi i32 [ %41, %38 ], [ 0, %0 ]
  %12 = call i32 (i8*, ...) bitcast (i32 (...)* @gets to i32 (i8*, ...)*)(i8* nonnull %3) #5
  %13 = load i8, i8* %3, align 16, !tbaa !5
  %14 = icmp eq i8 %13, 95
  %15 = and i8 %13, -33
  %16 = add i8 %15, -65
  %17 = icmp ult i8 %16, 26
  %18 = or i1 %17, %14
  br i1 %18, label %19, label %38

19:                                               ; preds = %10
  %20 = load i8, i8* %8, align 1, !tbaa !5
  %21 = icmp eq i8 %20, 0
  br i1 %21, label %38, label %22

22:                                               ; preds = %19, %33
  %23 = phi i64 [ %34, %33 ], [ 1, %19 ]
  %24 = phi i8 [ %36, %33 ], [ %20, %19 ]
  %25 = and i8 %24, -33
  %26 = add i8 %25, -65
  %27 = icmp ult i8 %26, 26
  br i1 %27, label %33, label %28

28:                                               ; preds = %22
  %29 = add i8 %24, -48
  %30 = icmp ult i8 %29, 10
  %31 = icmp eq i8 %24, 95
  %32 = or i1 %31, %30
  br i1 %32, label %33, label %38

33:                                               ; preds = %28, %22
  %34 = add nuw i64 %23, 1
  %35 = getelementptr inbounds [100 x i8], [100 x i8]* %1, i64 0, i64 %34
  %36 = load i8, i8* %35, align 1, !tbaa !5
  %37 = icmp eq i8 %36, 0
  br i1 %37, label %38, label %22, !llvm.loop !8

38:                                               ; preds = %28, %33, %19, %10
  %39 = phi i8* [ getelementptr inbounds ([2 x i8], [2 x i8]* @str.3, i64 0, i64 0), %10 ], [ getelementptr inbounds ([2 x i8], [2 x i8]* @str.2, i64 0, i64 0), %19 ], [ getelementptr inbounds ([2 x i8], [2 x i8]* @str.2, i64 0, i64 0), %33 ], [ getelementptr inbounds ([2 x i8], [2 x i8]* @str.3, i64 0, i64 0), %28 ]
  %40 = call i32 @puts(i8* nonnull dereferenceable(1) %39)
  %41 = add nuw nsw i32 %11, 1
  %42 = icmp eq i32 %41, %7
  br i1 %42, label %43, label %10, !llvm.loop !10

43:                                               ; preds = %38, %0
  call void @llvm.lifetime.end.p0i8(i64 10, i8* nonnull %4) #5
  call void @llvm.lifetime.end.p0i8(i64 100, i8* nonnull %3) #5
  ret i32 0
}

; Function Attrs: argmemonly mustprogress nofree nosync nounwind willreturn
declare void @llvm.lifetime.start.p0i8(i64 immarg, i8* nocapture) #1

declare i32 @gets(...) local_unnamed_addr #2

; Function Attrs: argmemonly mustprogress nofree nosync nounwind willreturn
declare void @llvm.lifetime.end.p0i8(i64 immarg, i8* nocapture) #1

; Function Attrs: mustprogress nofree nounwind willreturn
declare i64 @strtol(i8* readonly, i8** nocapture, i32) local_unnamed_addr #3

; Function Attrs: nofree nounwind
declare noundef i32 @puts(i8* nocapture noundef readonly) local_unnamed_addr #4


!llvm.module.flags = !{!0, !1, !2, !3}
!llvm.ident = !{!4}

!0 = !{i32 1, !"wchar_size", i32 4}
!1 = !{i32 7, !"PIC Level", i32 2}
!2 = !{i32 7, !"PIE Level", i32 2}
!3 = !{i32 7, !"uwtable", i32 1}
!4 = !{!"clang version 13.0.0"}
!5 = !{!6, !6, i64 0}
!6 = !{!"omnipotent char", !7, i64 0}
!7 = !{!"Simple C/C++ TBAA"}
!8 = distinct !{!8, !9}
!9 = !{!"llvm.loop.mustprogress"}
!10 = distinct !{!10, !9}
